target datalayout = "e-m:e-p270:32:32-p271:32:32-p272:64:64-i64:64-i128:128-f80:128-n8:16:32:64-S128"
target triple = "x86_64-pc-linux-gnu"

%"class.std::__cxx11::basic_string" = type { %"struct.std::__cxx11::basic_string<char>::_Alloc_hider", i64, %union.anon }
%"struct.std::__cxx11::basic_string<char>::_Alloc_hider" = type { ptr }
%union.anon = type { i64, [8 x i8] }
%"struct.Yosys::RTLIL::IdString" = type { i32 }
%"class.std::vector.29" = type { %"struct.std::_Vector_base.30" }
%"struct.std::_Vector_base.30" = type { %"struct.std::_Vector_base<int, std::allocator<int>>::_Vector_impl" }
%"struct.std::_Vector_base<int, std::allocator<int>>::_Vector_impl" = type { %"struct.std::_Vector_base<int, std::allocator<int>>::_Vector_impl_data" }
%"struct.std::_Vector_base<int, std::allocator<int>>::_Vector_impl_data" = type { ptr, ptr, ptr }
%"struct.Yosys::hashlib::hash_ops" = type { i8 }
%"class.std::basic_ostream.base" = type { ptr }
%"class.std::basic_streambuf" = type { ptr, ptr, ptr, ptr, ptr, ptr, ptr, %"class.std::locale" }
%"class.std::locale" = type { ptr }
%"class.std::basic_ios" = type { %"class.std::ios_base", ptr, i8, i8, ptr, ptr, ptr, ptr }
%"class.std::ios_base" = type { ptr, i64, i64, i32, i32, i32, ptr, %"struct.std::ios_base::_Words", [8 x %"struct.std::ios_base::_Words"], i32, ptr, %"class.std::locale" }
%"struct.std::ios_base::_Words" = type { ptr, i64 }
%"struct.Yosys::RTLIL::Wire" = type <{ %"struct.Yosys::RTLIL::AttrObject", i32, [4 x i8], ptr, %"struct.Yosys::RTLIL::IdString", i32, i32, i32, i8, i8, i8, i8, [4 x i8] }>
%"struct.Yosys::RTLIL::AttrObject" = type { %"class.Yosys::hashlib::dict.319" }
%"class.Yosys::hashlib::dict.319" = type <{ %"class.std::vector.29", %"class.std::vector.320", %"struct.Yosys::hashlib::hash_ops", [7 x i8] }>
%"class.std::vector.320" = type { %"struct.std::_Vector_base.321" }
%"struct.std::_Vector_base.321" = type { %"struct.std::_Vector_base<Yosys::hashlib::dict<Yosys::RTLIL::IdString, Yosys::RTLIL::Const>::entry_t, std::allocator<Yosys::hashlib::dict<Yosys::RTLIL::IdString, Yosys::RTLIL::Const>::entry_t>>::_Vector_impl" }
%"struct.std::_Vector_base<Yosys::hashlib::dict<Yosys::RTLIL::IdString, Yosys::RTLIL::Const>::entry_t, std::allocator<Yosys::hashlib::dict<Yosys::RTLIL::IdString, Yosys::RTLIL::Const>::entry_t>>::_Vector_impl" = type { %"struct.std::_Vector_base<Yosys::hashlib::dict<Yosys::RTLIL::IdString, Yosys::RTLIL::Const>::entry_t, std::allocator<Yosys::hashlib::dict<Yosys::RTLIL::IdString, Yosys::RTLIL::Const>::entry_t>>::_Vector_impl_data" }
%"struct.std::_Vector_base<Yosys::hashlib::dict<Yosys::RTLIL::IdString, Yosys::RTLIL::Const>::entry_t, std::allocator<Yosys::hashlib::dict<Yosys::RTLIL::IdString, Yosys::RTLIL::Const>::entry_t>>::_Vector_impl_data" = type { ptr, ptr, ptr }
%"class.std::basic_istream.base" = type { ptr, i64 }
%"class.std::__cxx11::basic_stringstream" = type { %"class.std::basic_iostream.base", %"class.std::__cxx11::basic_stringbuf", %"class.std::basic_ios" }
%"class.std::basic_iostream.base" = type { %"class.std::basic_istream.base", %"class.std::basic_ostream.base" }
%"class.std::__cxx11::basic_stringbuf" = type { %"class.std::basic_streambuf", i32, %"class.std::__cxx11::basic_string" }

@.str.162 = private unnamed_addr constant [3 x i8] c"%s\00", align 1
@.str.392 = private unnamed_addr constant [11 x i8] c"[%d:%d] %s\00", align 1

; Function Attrs: mustprogress uwtable
define internal void @_ZN12_GLOBAL__N_19SimWorker13define_signalB5cxx11EPN5Yosys5RTLIL4WireE(ptr dead_on_unwind noalias writable sret(%"class.std::__cxx11::basic_string") align 8 %0, ptr noundef nonnull align 8 dereferenceable(560) %1, ptr noundef %2) #4 align 2 personality ptr @__gxx_personality_v0 {
  %4 = alloca ptr, align 8
  %5 = alloca ptr, align 8
  %6 = alloca ptr, align 8
  %7 = alloca %"class.std::__cxx11::basic_stringstream", align 8
  %8 = alloca %"class.std::__cxx11::basic_string", align 8
  %9 = alloca %"class.std::__cxx11::basic_string", align 8
  %10 = alloca ptr, align 8
  %11 = alloca i32, align 4
  %12 = alloca %"class.std::__cxx11::basic_string", align 8
  %13 = alloca %"class.std::__cxx11::basic_string", align 8
  %14 = alloca %"class.std::__cxx11::basic_string", align 8
  %15 = alloca %"class.std::__cxx11::basic_string", align 8
  store ptr %0, ptr %4, align 8
  store ptr %1, ptr %5, align 8
  store ptr %2, ptr %6, align 8
  call void @_ZNSt7__cxx1118basic_stringstreamIcSt11char_traitsIcESaIcEEC1Ev(ptr noundef nonnull align 8 dereferenceable(128) %7)
  %16 = load ptr, ptr %6, align 8
  %17 = getelementptr inbounds %"struct.Yosys::RTLIL::Wire", ptr %16, i32 0, i32 5
  %18 = load i32, ptr %17, align 4
  %19 = icmp eq i32 %18, 1
  br i1 %19, label %20, label %42

20:                                               ; preds = %3
  %21 = getelementptr inbounds i8, ptr %7, i64 16
  %22 = load ptr, ptr %6, align 8
  %23 = getelementptr inbounds %"struct.Yosys::RTLIL::Wire", ptr %22, i32 0, i32 4
  invoke void @_ZN5Yosys5RTLILL11unescape_idB5cxx11ERKNS0_8IdStringE(ptr dead_on_unwind writable sret(%"class.std::__cxx11::basic_string") align 8 %9, ptr noundef nonnull align 4 dereferenceable(4) %23)
          to label %24 unwind label %29

24:                                               ; preds = %20
  %25 = call noundef ptr @_ZNKSt7__cxx1112basic_stringIcSt11char_traitsIcESaIcEE5c_strEv(ptr noundef nonnull align 8 dereferenceable(32) %9) #3
  invoke void (ptr, ptr, ...) @_ZN5Yosys7stringfB5cxx11EPKcz(ptr dead_on_unwind writable sret(%"class.std::__cxx11::basic_string") align 8 %8, ptr noundef @.str.162, ptr noundef %25)
          to label %26 unwind label %33

26:                                               ; preds = %24
  %27 = invoke noundef nonnull align 8 dereferenceable(8) ptr @_ZStlsIcSt11char_traitsIcESaIcEERSt13basic_ostreamIT_T0_ES7_RKNSt7__cxx1112basic_stringIS4_S5_T1_EE(ptr noundef nonnull align 8 dereferenceable(8) %21, ptr noundef nonnull align 8 dereferenceable(32) %8)
          to label %28 unwind label %37

28:                                               ; preds = %26
  call void @_ZNSt7__cxx1112basic_stringIcSt11char_traitsIcESaIcEED1Ev(ptr noundef nonnull align 8 dereferenceable(32) %8) #3
  call void @_ZNSt7__cxx1112basic_stringIcSt11char_traitsIcESaIcEED1Ev(ptr noundef nonnull align 8 dereferenceable(32) %9) #3
  br label %106

29:                                               ; preds = %106, %76, %47, %20
  %30 = landingpad { ptr, i32 }
          cleanup
  %31 = extractvalue { ptr, i32 } %30, 0
  store ptr %31, ptr %10, align 8
  %32 = extractvalue { ptr, i32 } %30, 1
  store i32 %32, ptr %11, align 4
  br label %108

33:                                               ; preds = %24
  %34 = landingpad { ptr, i32 }
          cleanup
  %35 = extractvalue { ptr, i32 } %34, 0
  store ptr %35, ptr %10, align 8
  %36 = extractvalue { ptr, i32 } %34, 1
  store i32 %36, ptr %11, align 4
  br label %41

37:                                               ; preds = %26
  %38 = landingpad { ptr, i32 }
          cleanup
  %39 = extractvalue { ptr, i32 } %38, 0
  store ptr %39, ptr %10, align 8
  %40 = extractvalue { ptr, i32 } %38, 1
  store i32 %40, ptr %11, align 4
  call void @_ZNSt7__cxx1112basic_stringIcSt11char_traitsIcESaIcEED1Ev(ptr noundef nonnull align 8 dereferenceable(32) %8) #3
  br label %41

41:                                               ; preds = %37, %33
  call void @_ZNSt7__cxx1112basic_stringIcSt11char_traitsIcESaIcEED1Ev(ptr noundef nonnull align 8 dereferenceable(32) %9) #3
  br label %108

42:                                               ; preds = %3
  %43 = load ptr, ptr %6, align 8
  %44 = getelementptr inbounds %"struct.Yosys::RTLIL::Wire", ptr %43, i32 0, i32 10
  %45 = load i8, ptr %44, align 2
  %46 = trunc i8 %45 to i1
  br i1 %46, label %47, label %76

47:                                               ; preds = %42
  %48 = getelementptr inbounds i8, ptr %7, i64 16
  %49 = load ptr, ptr %6, align 8
  %50 = getelementptr inbounds %"struct.Yosys::RTLIL::Wire", ptr %49, i32 0, i32 6
  %51 = load i32, ptr %50, align 8
  %52 = load ptr, ptr %6, align 8
  %53 = getelementptr inbounds %"struct.Yosys::RTLIL::Wire", ptr %52, i32 0, i32 5
  %54 = load i32, ptr %53, align 4
  %55 = sub nsw i32 %54, 1
  %56 = load ptr, ptr %6, align 8
  %57 = getelementptr inbounds %"struct.Yosys::RTLIL::Wire", ptr %56, i32 0, i32 6
  %58 = load i32, ptr %57, align 8
  %59 = add nsw i32 %55, %58
  %60 = load ptr, ptr %6, align 8
  %61 = getelementptr inbounds %"struct.Yosys::RTLIL::Wire", ptr %60, i32 0, i32 4
  invoke void @_ZN5Yosys5RTLILL11unescape_idB5cxx11ERKNS0_8IdStringE(ptr dead_on_unwind writable sret(%"class.std::__cxx11::basic_string") align 8 %13, ptr noundef nonnull align 4 dereferenceable(4) %61)
          to label %62 unwind label %29

62:                                               ; preds = %47
  %63 = call noundef ptr @_ZNKSt7__cxx1112basic_stringIcSt11char_traitsIcESaIcEE5c_strEv(ptr noundef nonnull align 8 dereferenceable(32) %13) #3
  invoke void (ptr, ptr, ...) @_ZN5Yosys7stringfB5cxx11EPKcz(ptr dead_on_unwind writable sret(%"class.std::__cxx11::basic_string") align 8 %12, ptr noundef @.str.392, i32 noundef %51, i32 noundef %59, ptr noundef %63)
          to label %64 unwind label %67

64:                                               ; preds = %62
  %65 = invoke noundef nonnull align 8 dereferenceable(8) ptr @_ZStlsIcSt11char_traitsIcESaIcEERSt13basic_ostreamIT_T0_ES7_RKNSt7__cxx1112basic_stringIS4_S5_T1_EE(ptr noundef nonnull align 8 dereferenceable(8) %48, ptr noundef nonnull align 8 dereferenceable(32) %12)
          to label %66 unwind label %71

66:                                               ; preds = %64
  call void @_ZNSt7__cxx1112basic_stringIcSt11char_traitsIcESaIcEED1Ev(ptr noundef nonnull align 8 dereferenceable(32) %12) #3
  call void @_ZNSt7__cxx1112basic_stringIcSt11char_traitsIcESaIcEED1Ev(ptr noundef nonnull align 8 dereferenceable(32) %13) #3
  br label %105

67:                                               ; preds = %62
  %68 = landingpad { ptr, i32 }
          cleanup
  %69 = extractvalue { ptr, i32 } %68, 0
  store ptr %69, ptr %10, align 8
  %70 = extractvalue { ptr, i32 } %68, 1
  store i32 %70, ptr %11, align 4
  br label %75

71:                                               ; preds = %64
  %72 = landingpad { ptr, i32 }
          cleanup
  %73 = extractvalue { ptr, i32 } %72, 0
  store ptr %73, ptr %10, align 8
  %74 = extractvalue { ptr, i32 } %72, 1
  store i32 %74, ptr %11, align 4
  call void @_ZNSt7__cxx1112basic_stringIcSt11char_traitsIcESaIcEED1Ev(ptr noundef nonnull align 8 dereferenceable(32) %12) #3
  br label %75

75:                                               ; preds = %71, %67
  call void @_ZNSt7__cxx1112basic_stringIcSt11char_traitsIcESaIcEED1Ev(ptr noundef nonnull align 8 dereferenceable(32) %13) #3
  br label %108

76:                                               ; preds = %42
  %77 = getelementptr inbounds i8, ptr %7, i64 16
  %78 = load ptr, ptr %6, align 8
  %79 = getelementptr inbounds %"struct.Yosys::RTLIL::Wire", ptr %78, i32 0, i32 5
  %80 = load i32, ptr %79, align 4
  %81 = sub nsw i32 %80, 1
  %82 = load ptr, ptr %6, align 8
  %83 = getelementptr inbounds %"struct.Yosys::RTLIL::Wire", ptr %82, i32 0, i32 6
  %84 = load i32, ptr %83, align 8
  %85 = add nsw i32 %81, %84
  %86 = load ptr, ptr %6, align 8
  %87 = getelementptr inbounds %"struct.Yosys::RTLIL::Wire", ptr %86, i32 0, i32 6
  %88 = load i32, ptr %87, align 8
  %89 = load ptr, ptr %6, align 8
  %90 = getelementptr inbounds %"struct.Yosys::RTLIL::Wire", ptr %89, i32 0, i32 4
  invoke void @_ZN5Yosys5RTLILL11unescape_idB5cxx11ERKNS0_8IdStringE(ptr dead_on_unwind writable sret(%"class.std::__cxx11::basic_string") align 8 %15, ptr noundef nonnull align 4 dereferenceable(4) %90)
          to label %91 unwind label %29

91:                                               ; preds = %76
  %92 = call noundef ptr @_ZNKSt7__cxx1112basic_stringIcSt11char_traitsIcESaIcEE5c_strEv(ptr noundef nonnull align 8 dereferenceable(32) %15) #3
  invoke void (ptr, ptr, ...) @_ZN5Yosys7stringfB5cxx11EPKcz(ptr dead_on_unwind writable sret(%"class.std::__cxx11::basic_string") align 8 %14, ptr noundef @.str.392, i32 noundef %85, i32 noundef %88, ptr noundef %92)
          to label %93 unwind label %96

93:                                               ; preds = %91
  %94 = invoke noundef nonnull align 8 dereferenceable(8) ptr @_ZStlsIcSt11char_traitsIcESaIcEERSt13basic_ostreamIT_T0_ES7_RKNSt7__cxx1112basic_stringIS4_S5_T1_EE(ptr noundef nonnull align 8 dereferenceable(8) %77, ptr noundef nonnull align 8 dereferenceable(32) %14)
          to label %95 unwind label %100

95:                                               ; preds = %93
  call void @_ZNSt7__cxx1112basic_stringIcSt11char_traitsIcESaIcEED1Ev(ptr noundef nonnull align 8 dereferenceable(32) %14) #3
  call void @_ZNSt7__cxx1112basic_stringIcSt11char_traitsIcESaIcEED1Ev(ptr noundef nonnull align 8 dereferenceable(32) %15) #3
  br label %105

96:                                               ; preds = %91
  %97 = landingpad { ptr, i32 }
          cleanup
  %98 = extractvalue { ptr, i32 } %97, 0
  store ptr %98, ptr %10, align 8
  %99 = extractvalue { ptr, i32 } %97, 1
  store i32 %99, ptr %11, align 4
  br label %104

100:                                              ; preds = %93
  %101 = landingpad { ptr, i32 }
          cleanup
  %102 = extractvalue { ptr, i32 } %101, 0
  store ptr %102, ptr %10, align 8
  %103 = extractvalue { ptr, i32 } %101, 1
  store i32 %103, ptr %11, align 4
  call void @_ZNSt7__cxx1112basic_stringIcSt11char_traitsIcESaIcEED1Ev(ptr noundef nonnull align 8 dereferenceable(32) %14) #3
  br label %104

104:                                              ; preds = %100, %96
  call void @_ZNSt7__cxx1112basic_stringIcSt11char_traitsIcESaIcEED1Ev(ptr noundef nonnull align 8 dereferenceable(32) %15) #3
  br label %108

105:                                              ; preds = %95, %66
  br label %106

106:                                              ; preds = %105, %28
  invoke void @_ZNKSt7__cxx1118basic_stringstreamIcSt11char_traitsIcESaIcEE3strEv(ptr dead_on_unwind writable sret(%"class.std::__cxx11::basic_string") align 8 %0, ptr noundef nonnull align 8 dereferenceable(128) %7)
          to label %107 unwind label %29

107:                                              ; preds = %106
  call void @_ZNSt7__cxx1118basic_stringstreamIcSt11char_traitsIcESaIcEED1Ev(ptr noundef nonnull align 8 dereferenceable(128) %7) #3
  ret void

108:                                              ; preds = %104, %75, %41, %29
  call void @_ZNSt7__cxx1118basic_stringstreamIcSt11char_traitsIcESaIcEED1Ev(ptr noundef nonnull align 8 dereferenceable(128) %7) #3
  br label %109

109:                                              ; preds = %108
  %110 = load ptr, ptr %10, align 8
  %111 = load i32, ptr %11, align 4
  %112 = insertvalue { ptr, i32 } poison, ptr %110, 0
  %113 = insertvalue { ptr, i32 } %112, i32 %111, 1
  resume { ptr, i32 } %113
}