; Function Attrs: mustprogress uwtable
define internal fastcc void @_ZN12_GLOBAL__N_19SimWorker13define_signalB5cxx11EPN5Yosys5RTLIL4WireE(ptr dead_on_unwind noalias writable align 8 %0, ptr nocapture noundef readonly %1) unnamed_addr #4 align 2 personality ptr @__gxx_personality_v0 {
  %3 = alloca %"class.std::__cxx11::basic_stringstream", align 8
  %4 = alloca %"class.std::__cxx11::basic_string", align 8
  %5 = alloca %"class.std::__cxx11::basic_string", align 8
  %6 = alloca %"class.std::__cxx11::basic_string", align 8
  %7 = alloca %"class.std::__cxx11::basic_string", align 8
  %8 = alloca %"class.std::__cxx11::basic_string", align 8
  %9 = alloca %"class.std::__cxx11::basic_string", align 8
  call void @_ZNSt7__cxx1118basic_stringstreamIcSt11char_traitsIcESaIcEEC1Ev(ptr noundef nonnull align 8 dereferenceable(128) %3)
  %10 = getelementptr inbounds i8, ptr %1, i64 76
  %11 = load i32, ptr %10, align 4
  %12 = icmp eq i32 %11, 1
  br i1 %12, label %13, label %27

13:                                               ; preds = %2
  %14 = getelementptr inbounds i8, ptr %3, i64 16
  %15 = getelementptr inbounds i8, ptr %1, i64 72
  %.val25 = load i32, ptr %15, align 4, !noalias !285
  invoke fastcc void @_ZN5Yosys5RTLILL11unescape_idB5cxx11ERKNS0_8IdStringE(ptr dead_on_unwind noalias nonnull writable align 8 %5, i32 %.val25)
          to label %16 unwind label %20

16:                                               ; preds = %13
  %17 = call noundef ptr @_ZNKSt7__cxx1112basic_stringIcSt11char_traitsIcESaIcEE5c_strEv(ptr noundef nonnull align 8 dereferenceable(32) %5) #31
  invoke void (ptr, ptr, ...) @_ZN5Yosys7stringfB5cxx11EPKcz(ptr dead_on_unwind nonnull writable sret(%"class.std::__cxx11::basic_string") align 8 %4, ptr noundef nonnull @.str.162, ptr noundef %17)
          to label %18 unwind label %22

18:                                               ; preds = %16
  %19 = invoke noundef nonnull align 8 dereferenceable(8) ptr @_ZStlsIcSt11char_traitsIcESaIcEERSt13basic_ostreamIT_T0_ES7_RKNSt7__cxx1112basic_stringIS4_S5_T1_EE(ptr noundef nonnull align 8 dereferenceable(8) %14, ptr noundef nonnull align 8 dereferenceable(32) %4)
          to label %59 unwind label %24

20:                                               ; preds = %13, %35, %47, %59
  %21 = landingpad { ptr, i32 }
          cleanup
  br label %61

22:                                               ; preds = %16
  %23 = landingpad { ptr, i32 }
          cleanup
  br label %26

24:                                               ; preds = %18
  %25 = landingpad { ptr, i32 }
          cleanup
  call void @_ZNSt7__cxx1112basic_stringIcSt11char_traitsIcESaIcEED1Ev(ptr noundef nonnull align 8 dereferenceable(32) %4) #31
  br label %26

26:                                               ; preds = %24, %22
  %.pn20 = phi { ptr, i32 } [ %25, %24 ], [ %23, %22 ]
  call void @_ZNSt7__cxx1112basic_stringIcSt11char_traitsIcESaIcEED1Ev(ptr noundef nonnull align 8 dereferenceable(32) %5) #31
  br label %61

27:                                               ; preds = %2
  %28 = getelementptr inbounds i8, ptr %1, i64 90
  %29 = load i8, ptr %28, align 2
  %30 = and i8 %29, 1
  %.not = icmp eq i8 %30, 0
  %31 = getelementptr inbounds i8, ptr %3, i64 16
  %32 = getelementptr inbounds i8, ptr %1, i64 80
  %33 = load i32, ptr %32, align 8
  %34 = getelementptr inbounds i8, ptr %1, i64 72
  %.val = load i32, ptr %34, align 4, !noalias !285
  br i1 %.not, label %47, label %35

35:                                               ; preds = %27
  invoke fastcc void @_ZN5Yosys5RTLILL11unescape_idB5cxx11ERKNS0_8IdStringE(ptr dead_on_unwind noalias nonnull writable align 8 %7, i32 %.val)
          to label %36 unwind label %20

36:                                               ; preds = %35
  %37 = add nsw i32 %11, -1
  %38 = add nsw i32 %37, %33
  %39 = call noundef ptr @_ZNKSt7__cxx1112basic_stringIcSt11char_traitsIcESaIcEE5c_strEv(ptr noundef nonnull align 8 dereferenceable(32) %7) #31
  invoke void (ptr, ptr, ...) @_ZN5Yosys7stringfB5cxx11EPKcz(ptr dead_on_unwind nonnull writable sret(%"class.std::__cxx11::basic_string") align 8 %6, ptr noundef nonnull @.str.392, i32 noundef %33, i32 noundef %38, ptr noundef %39)
          to label %40 unwind label %42

40:                                               ; preds = %36
  %41 = invoke noundef nonnull align 8 dereferenceable(8) ptr @_ZStlsIcSt11char_traitsIcESaIcEERSt13basic_ostreamIT_T0_ES7_RKNSt7__cxx1112basic_stringIS4_S5_T1_EE(ptr noundef nonnull align 8 dereferenceable(8) %31, ptr noundef nonnull align 8 dereferenceable(32) %6)
          to label %59 unwind label %44

42:                                               ; preds = %36
  %43 = landingpad { ptr, i32 }
          cleanup
  br label %46

44:                                               ; preds = %40
  %45 = landingpad { ptr, i32 }
          cleanup
  call void @_ZNSt7__cxx1112basic_stringIcSt11char_traitsIcESaIcEED1Ev(ptr noundef nonnull align 8 dereferenceable(32) %6) #31
  br label %46

46:                                               ; preds = %44, %42
  %.pn18 = phi { ptr, i32 } [ %45, %44 ], [ %43, %42 ]
  call void @_ZNSt7__cxx1112basic_stringIcSt11char_traitsIcESaIcEED1Ev(ptr noundef nonnull align 8 dereferenceable(32) %7) #31
  br label %61

47:                                               ; preds = %27
  invoke fastcc void @_ZN5Yosys5RTLILL11unescape_idB5cxx11ERKNS0_8IdStringE(ptr dead_on_unwind noalias nonnull writable align 8 %9, i32 %.val)
          to label %48 unwind label %20

48:                                               ; preds = %47
  %49 = add nsw i32 %11, -1
  %50 = add nsw i32 %49, %33
  %51 = call noundef ptr @_ZNKSt7__cxx1112basic_stringIcSt11char_traitsIcESaIcEE5c_strEv(ptr noundef nonnull align 8 dereferenceable(32) %9) #31
  invoke void (ptr, ptr, ...) @_ZN5Yosys7stringfB5cxx11EPKcz(ptr dead_on_unwind nonnull writable sret(%"class.std::__cxx11::basic_string") align 8 %8, ptr noundef nonnull @.str.392, i32 noundef %50, i32 noundef %33, ptr noundef %51)
          to label %52 unwind label %54

52:                                               ; preds = %48
  %53 = invoke noundef nonnull align 8 dereferenceable(8) ptr @_ZStlsIcSt11char_traitsIcESaIcEERSt13basic_ostreamIT_T0_ES7_RKNSt7__cxx1112basic_stringIS4_S5_T1_EE(ptr noundef nonnull align 8 dereferenceable(8) %31, ptr noundef nonnull align 8 dereferenceable(32) %8)
          to label %59 unwind label %56

54:                                               ; preds = %48
  %55 = landingpad { ptr, i32 }
          cleanup
  br label %58

56:                                               ; preds = %52
  %57 = landingpad { ptr, i32 }
          cleanup
  call void @_ZNSt7__cxx1112basic_stringIcSt11char_traitsIcESaIcEED1Ev(ptr noundef nonnull align 8 dereferenceable(32) %8) #31
  br label %58

58:                                               ; preds = %56, %54
  %.pn = phi { ptr, i32 } [ %57, %56 ], [ %55, %54 ]
  call void @_ZNSt7__cxx1112basic_stringIcSt11char_traitsIcESaIcEED1Ev(ptr noundef nonnull align 8 dereferenceable(32) %9) #31
  br label %61

59:                                               ; preds = %52, %40, %18
  %.sink1 = phi ptr [ %4, %18 ], [ %6, %40 ], [ %8, %52 ]
  %.sink = phi ptr [ %5, %18 ], [ %7, %40 ], [ %9, %52 ]
  call void @_ZNSt7__cxx1112basic_stringIcSt11char_traitsIcESaIcEED1Ev(ptr noundef nonnull align 8 dereferenceable(32) %.sink1) #31
  call void @_ZNSt7__cxx1112basic_stringIcSt11char_traitsIcESaIcEED1Ev(ptr noundef nonnull align 8 dereferenceable(32) %.sink) #31
  invoke void @_ZNKSt7__cxx1118basic_stringstreamIcSt11char_traitsIcESaIcEE3strEv(ptr dead_on_unwind writable sret(%"class.std::__cxx11::basic_string") align 8 %0, ptr noundef nonnull align 8 dereferenceable(128) %3)
          to label %60 unwind label %20

60:                                               ; preds = %59
  call void @_ZNSt7__cxx1118basic_stringstreamIcSt11char_traitsIcESaIcEED1Ev(ptr noundef nonnull align 8 dereferenceable(128) %3) #31
  ret void

61:                                               ; preds = %58, %46, %26, %20
  %.pn22 = phi { ptr, i32 } [ %21, %20 ], [ %.pn20, %26 ], [ %.pn18, %46 ], [ %.pn, %58 ]
  call void @_ZNSt7__cxx1118basic_stringstreamIcSt11char_traitsIcESaIcEED1Ev(ptr noundef nonnull align 8 dereferenceable(128) %3) #31
  resume { ptr, i32 } %.pn22
}